target datalayout = "e-m:e-p270:32:32-p271:32:32-p272:64:64-i64:64-i128:128-f80:128-n8:16:32:64-S128"
target triple = "x86_64-pc-linux-gnu"

%class.StackBase = type { i64, i64, i64, i64, i64, i64 }
%class.PreservedMarksSet = type { i8, i32, ptr }
%class.markWord = type { i64 }
%class.PreservedMark = type { ptr, %class.markWord }
%class.Padded = type { %class.PreservedMarks, [256 x i8] }
%class.PreservedMarks = type { %class.Stack.1 }
%class.Stack.1 = type { ptr, %class.StackBase, ptr, ptr }

@_ZN12SerialFullGC29_preserved_overflow_stack_setE = hidden global %class.PreservedMarksSet zeroinitializer, align 8
@_ZN12SerialFullGC16_preserved_countE = hidden global i64 0, align 8
@_ZN12SerialFullGC16_preserved_marksE = hidden global ptr null, align 8

; Function Attrs: mustprogress nounwind uwtable
define linkonce_odr hidden noundef ptr @_ZNK17PreservedMarksSet3getEj(ptr noundef nonnull align 8 dereferenceable(16) %0, i32 noundef %1) #1 comdat align 2 {
  %3 = alloca ptr, align 8
  %4 = alloca i32, align 4
  store ptr %0, ptr %3, align 8
  store i32 %1, ptr %4, align 4
  %5 = load ptr, ptr %3, align 8
  %6 = getelementptr inbounds %class.PreservedMarksSet, ptr %5, i32 0, i32 2
  %7 = load ptr, ptr %6, align 8
  %8 = load i32, ptr %4, align 4
  %9 = zext i32 %8 to i64
  %10 = getelementptr inbounds %class.Padded, ptr %7, i64 %9
  ret ptr %10
}

; Function Attrs: mustprogress nounwind uwtable
define hidden void @_ZN12SerialFullGC12adjust_marksEv() #1 align 2 {
  %1 = alloca i64, align 8
  store i64 0, ptr %1, align 8
  br label %2

2:                                                ; preds = %10, %0
  %3 = load i64, ptr %1, align 8
  %4 = load i64, ptr @_ZN12SerialFullGC16_preserved_countE, align 8
  %5 = icmp ult i64 %3, %4
  br i1 %5, label %6, label %13

6:                                                ; preds = %2
  %7 = load ptr, ptr @_ZN12SerialFullGC16_preserved_marksE, align 8
  %8 = load i64, ptr %1, align 8
  %9 = getelementptr inbounds %class.PreservedMark, ptr %7, i64 %8
  call void @_ZN14PreservedMarks21adjust_preserved_markEP13PreservedMark(ptr noundef %9)
  br label %10

10:                                               ; preds = %6
  %11 = load i64, ptr %1, align 8
  %12 = add i64 %11, 1
  store i64 %12, ptr %1, align 8
  br label %2, !llvm.loop !9

13:                                               ; preds = %2
  %14 = call noundef ptr @_ZNK17PreservedMarksSet3getEj(ptr noundef nonnull align 8 dereferenceable(16) @_ZN12SerialFullGC29_preserved_overflow_stack_setE, i32 noundef 0)
  call void @_ZN14PreservedMarks21adjust_during_full_gcEv(ptr noundef nonnull align 8 dereferenceable(72) %14)
  ret void
}