; Function Attrs: mustprogress nounwind uwtable
define hidden void @_ZN12SerialFullGC12adjust_marksEv() local_unnamed_addr #0 align 2 {
  %1 = load i64, ptr @_ZN12SerialFullGC16_preserved_countE, align 8
  %.not = icmp eq i64 %1, 0
  br i1 %.not, label %._crit_edge, label %.lr.ph

.lr.ph:                                           ; preds = %0, %.lr.ph
  %.03 = phi i64 [ %4, %.lr.ph ], [ 0, %0 ]
  %2 = load ptr, ptr @_ZN12SerialFullGC16_preserved_marksE, align 8
  %3 = getelementptr inbounds %class.PreservedMark, ptr %2, i64 %.03
  tail call void @_ZN14PreservedMarks21adjust_preserved_markEP13PreservedMark(ptr noundef %3) #16
  %4 = add nuw i64 %.03, 1
  %5 = load i64, ptr @_ZN12SerialFullGC16_preserved_countE, align 8
  %6 = icmp ult i64 %4, %5
  br i1 %6, label %.lr.ph, label %._crit_edge, !llvm.loop !11

._crit_edge:                                      ; preds = %.lr.ph, %0
  %7 = load ptr, ptr getelementptr inbounds (i8, ptr @_ZN12SerialFullGC29_preserved_overflow_stack_setE, i64 8), align 8
  tail call void @_ZN14PreservedMarks21adjust_during_full_gcEv(ptr noundef nonnull align 8 dereferenceable(72) %7) #16
  ret void
}